target datalayout = "e-m:e-p270:32:32-p271:32:32-p272:64:64-i64:64-i128:128-f80:128-n8:16:32:64-S128"
target triple = "x86_64-pc-linux-gnu"

%"class.std::__cxx11::basic_string" = type { %"struct.std::__cxx11::basic_string<char>::_Alloc_hider", i64, %union.anon }
%"struct.std::__cxx11::basic_string<char>::_Alloc_hider" = type { ptr }
%union.anon = type { i64, [8 x i8] }
%"struct.Luau::Config" = type { i32, [4 x i8], %"struct.Luau::ParseOptions", %"struct.Luau::LintOptions", %"struct.Luau::LintOptions", i8, i8, %"class.std::vector.2", %"class.Luau::DenseHashMap.7", %"class.Luau::DenseHashMap.13" }
%"struct.Luau::ParseOptions" = type { i8, i8, [6 x i8], %"class.std::optional", i8, i8, [6 x i8] }
%"class.std::optional" = type { %"struct.std::_Optional_base" }
%"struct.std::_Optional_base" = type { %"struct.std::_Optional_payload" }
%"struct.std::_Optional_payload" = type { %"struct.std::_Optional_payload.base", [7 x i8] }
%"struct.std::_Optional_payload.base" = type { %"struct.std::_Optional_payload_base.base" }
%"struct.std::_Optional_payload_base.base" = type <{ %"union.std::_Optional_payload_base<Luau::FragmentParseResumeSettings>::_Storage", i8 }>
%"union.std::_Optional_payload_base<Luau::FragmentParseResumeSettings>::_Storage" = type { %"struct.Luau::FragmentParseResumeSettings" }
%"struct.Luau::FragmentParseResumeSettings" = type { %"class.Luau::DenseHashMap", %"class.std::vector", %"struct.Luau::Position" }
%"class.Luau::DenseHashMap" = type { %"class.Luau::detail::DenseHashTable" }
%"class.Luau::detail::DenseHashTable" = type <{ ptr, i64, i64, %"struct.Luau::AstName", [8 x i8] }>
%"struct.Luau::AstName" = type { ptr }
%"class.std::vector" = type { %"struct.std::_Vector_base" }
%"struct.std::_Vector_base" = type { %"struct.std::_Vector_base<Luau::AstLocal *, std::allocator<Luau::AstLocal *>>::_Vector_impl" }
%"struct.std::_Vector_base<Luau::AstLocal *, std::allocator<Luau::AstLocal *>>::_Vector_impl" = type { %"struct.std::_Vector_base<Luau::AstLocal *, std::allocator<Luau::AstLocal *>>::_Vector_impl_data" }
%"struct.std::_Vector_base<Luau::AstLocal *, std::allocator<Luau::AstLocal *>>::_Vector_impl_data" = type { ptr, ptr, ptr }
%"struct.Luau::Position" = type { i32, i32 }
%"struct.Luau::LintOptions" = type { i64 }
%"class.std::vector.2" = type { %"struct.std::_Vector_base.3" }
%"struct.std::_Vector_base.3" = type { %"struct.std::_Vector_base<std::__cxx11::basic_string<char>, std::allocator<std::__cxx11::basic_string<char>>>::_Vector_impl" }
%"struct.std::_Vector_base<std::__cxx11::basic_string<char>, std::allocator<std::__cxx11::basic_string<char>>>::_Vector_impl" = type { %"struct.std::_Vector_base<std::__cxx11::basic_string<char>, std::allocator<std::__cxx11::basic_string<char>>>::_Vector_impl_data" }
%"struct.std::_Vector_base<std::__cxx11::basic_string<char>, std::allocator<std::__cxx11::basic_string<char>>>::_Vector_impl_data" = type { ptr, ptr, ptr }
%"class.Luau::DenseHashMap.7" = type { %"class.Luau::detail::DenseHashTable.8" }
%"class.Luau::detail::DenseHashTable.8" = type <{ ptr, i64, i64, %"class.std::__cxx11::basic_string", [8 x i8] }>
%"class.Luau::DenseHashMap.13" = type { %"class.Luau::detail::DenseHashTable.14" }
%"class.Luau::detail::DenseHashTable.14" = type <{ ptr, i64, i64, %"class.std::__cxx11::basic_string", [8 x i8] }>

@_ZN4Luau6ConfigC1ERKS0_ = dso_local unnamed_addr alias void (ptr, ptr), ptr @_ZN4Luau6ConfigC2ERKS0_

; Function Attrs: inlinehint mustprogress uwtable
define linkonce_odr dso_local void @_ZSt4swapIN4Luau6ConfigEENSt9enable_ifIXsr6__and_ISt6__not_ISt15__is_tuple_likeIT_EESt21is_move_constructibleIS5_ESt18is_move_assignableIS5_EEE5valueEvE4typeERS5_SE_(ptr noundef nonnull align 8 dereferenceable(280) %0, ptr noundef nonnull align 8 dereferenceable(280) %1) #6 comdat personality ptr @__gxx_personality_v0 {
  %3 = alloca ptr, align 8
  %4 = alloca ptr, align 8
  %5 = alloca %"struct.Luau::Config", align 8
  %6 = alloca ptr, align 8
  %7 = alloca i32, align 4
  store ptr %0, ptr %3, align 8, !tbaa !8
  store ptr %1, ptr %4, align 8, !tbaa !8
  call void @llvm.lifetime.start.p0(i64 280, ptr %5) #16
  %8 = load ptr, ptr %3, align 8, !tbaa !8
  call void @_ZN4Luau6ConfigC2EOS0_(ptr noundef nonnull align 8 dereferenceable(280) %5, ptr noundef nonnull align 8 dereferenceable(280) %8)
  %9 = load ptr, ptr %4, align 8, !tbaa !8
  %10 = load ptr, ptr %3, align 8, !tbaa !8
  %11 = invoke noundef nonnull align 8 dereferenceable(280) ptr @_ZN4Luau6ConfigaSEOS0_(ptr noundef nonnull align 8 dereferenceable(280) %10, ptr noundef nonnull align 8 dereferenceable(280) %9)
          to label %12 unwind label %16

12:                                               ; preds = %2
  %13 = load ptr, ptr %4, align 8, !tbaa !8
  %14 = invoke noundef nonnull align 8 dereferenceable(280) ptr @_ZN4Luau6ConfigaSEOS0_(ptr noundef nonnull align 8 dereferenceable(280) %13, ptr noundef nonnull align 8 dereferenceable(280) %5)
          to label %15 unwind label %16

15:                                               ; preds = %12
  call void @_ZN4Luau6ConfigD2Ev(ptr noundef nonnull align 8 dereferenceable(280) %5) #16
  call void @llvm.lifetime.end.p0(i64 280, ptr %5) #16
  ret void

16:                                               ; preds = %12, %2
  %17 = landingpad { ptr, i32 }
          cleanup
  %18 = extractvalue { ptr, i32 } %17, 0
  store ptr %18, ptr %6, align 8
  %19 = extractvalue { ptr, i32 } %17, 1
  store i32 %19, ptr %7, align 4
  call void @_ZN4Luau6ConfigD2Ev(ptr noundef nonnull align 8 dereferenceable(280) %5) #16
  call void @llvm.lifetime.end.p0(i64 280, ptr %5) #16
  br label %20

20:                                               ; preds = %16
  %21 = load ptr, ptr %6, align 8
  %22 = load i32, ptr %7, align 4
  %23 = insertvalue { ptr, i32 } poison, ptr %21, 0
  %24 = insertvalue { ptr, i32 } %23, i32 %22, 1
  resume { ptr, i32 } %24
}

; Function Attrs: mustprogress uwtable
define dso_local noundef nonnull align 8 dereferenceable(280) ptr @_ZN4Luau6ConfigaSERKS0_(ptr noundef nonnull align 8 dereferenceable(280) %0, ptr noundef nonnull align 8 dereferenceable(280) %1) #2 align 2 personality ptr @__gxx_personality_v0 {
  %3 = alloca ptr, align 8
  %4 = alloca ptr, align 8
  %5 = alloca %"struct.Luau::Config", align 8
  %6 = alloca ptr, align 8
  %7 = alloca i32, align 4
  store ptr %0, ptr %3, align 8, !tbaa !8
  store ptr %1, ptr %4, align 8, !tbaa !8
  %8 = load ptr, ptr %3, align 8
  %9 = load ptr, ptr %4, align 8, !tbaa !8
  %10 = icmp ne ptr %8, %9
  br i1 %10, label %11, label %18

11:                                               ; preds = %2
  call void @llvm.lifetime.start.p0(i64 280, ptr %5) #16
  %12 = load ptr, ptr %4, align 8, !tbaa !8
  call void @_ZN4Luau6ConfigC1ERKS0_(ptr noundef nonnull align 8 dereferenceable(280) %5, ptr noundef nonnull align 8 dereferenceable(280) %12)
  invoke void @_ZSt4swapIN4Luau6ConfigEENSt9enable_ifIXsr6__and_ISt6__not_ISt15__is_tuple_likeIT_EESt21is_move_constructibleIS5_ESt18is_move_assignableIS5_EEE5valueEvE4typeERS5_SE_(ptr noundef nonnull align 8 dereferenceable(280) %8, ptr noundef nonnull align 8 dereferenceable(280) %5)
          to label %13 unwind label %14

13:                                               ; preds = %11
  call void @_ZN4Luau6ConfigD2Ev(ptr noundef nonnull align 8 dereferenceable(280) %5) #16
  call void @llvm.lifetime.end.p0(i64 280, ptr %5) #16
  br label %18

14:                                               ; preds = %11
  %15 = landingpad { ptr, i32 }
          cleanup
  %16 = extractvalue { ptr, i32 } %15, 0
  store ptr %16, ptr %6, align 8
  %17 = extractvalue { ptr, i32 } %15, 1
  store i32 %17, ptr %7, align 4
  call void @_ZN4Luau6ConfigD2Ev(ptr noundef nonnull align 8 dereferenceable(280) %5) #16
  call void @llvm.lifetime.end.p0(i64 280, ptr %5) #16
  br label %19

18:                                               ; preds = %13, %2
  ret ptr %8

19:                                               ; preds = %14
  %20 = load ptr, ptr %6, align 8
  %21 = load i32, ptr %7, align 4
  %22 = insertvalue { ptr, i32 } poison, ptr %20, 0
  %23 = insertvalue { ptr, i32 } %22, i32 %21, 1
  resume { ptr, i32 } %23
}