; Function Attrs: mustprogress uwtable
define dso_local noundef nonnull align 8 dereferenceable(280) ptr @_ZN4Luau6ConfigaSERKS0_(ptr noundef nonnull returned align 8 dereferenceable(280) %0, ptr noundef nonnull align 8 dereferenceable(280) %1) local_unnamed_addr #2 align 2 personality ptr @__gxx_personality_v0 {
  %3 = alloca %"struct.Luau::Config", align 8
  %4 = alloca %"struct.Luau::Config", align 8
  %.not = icmp eq ptr %0, %1
  br i1 %.not, label %14, label %5

5:                                                ; preds = %2
  call void @llvm.lifetime.start.p0(i64 280, ptr nonnull %4) #21
  call void @_ZN4Luau6ConfigC2ERKS0_(ptr noundef nonnull align 8 dereferenceable(280) %4, ptr noundef nonnull align 8 dereferenceable(280) %1)
  call void @llvm.lifetime.start.p0(i64 280, ptr nonnull %3) #21
  invoke void @_ZN4Luau6ConfigC2EOS0_(ptr noundef nonnull align 8 dereferenceable(280) %3, ptr noundef nonnull align 8 dereferenceable(280) %0)
          to label %.noexc unwind label %12

.noexc:                                           ; preds = %5
  %6 = invoke noundef nonnull align 8 dereferenceable(280) ptr @_ZN4Luau6ConfigaSEOS0_(ptr noundef nonnull align 8 dereferenceable(280) %0, ptr noundef nonnull align 8 dereferenceable(280) %4)
          to label %7 unwind label %9

7:                                                ; preds = %.noexc
  %8 = invoke noundef nonnull align 8 dereferenceable(280) ptr @_ZN4Luau6ConfigaSEOS0_(ptr noundef nonnull align 8 dereferenceable(280) %4, ptr noundef nonnull align 8 dereferenceable(280) %3)
          to label %11 unwind label %9

9:                                                ; preds = %7, %.noexc
  %10 = landingpad { ptr, i32 }
          cleanup
  call void @_ZN4Luau6ConfigD2Ev(ptr noundef nonnull align 8 dereferenceable(280) %3) #21
  call void @llvm.lifetime.end.p0(i64 280, ptr nonnull %3) #21
  br label %.body

11:                                               ; preds = %7
  call void @_ZN4Luau6ConfigD2Ev(ptr noundef nonnull align 8 dereferenceable(280) %3) #21
  call void @llvm.lifetime.end.p0(i64 280, ptr nonnull %3) #21
  call void @_ZN4Luau6ConfigD2Ev(ptr noundef nonnull align 8 dereferenceable(280) %4) #21
  call void @llvm.lifetime.end.p0(i64 280, ptr nonnull %4) #21
  br label %14

12:                                               ; preds = %5
  %13 = landingpad { ptr, i32 }
          cleanup
  br label %.body

.body:                                            ; preds = %9, %12
  %eh.lpad-body = phi { ptr, i32 } [ %13, %12 ], [ %10, %9 ]
  call void @_ZN4Luau6ConfigD2Ev(ptr noundef nonnull align 8 dereferenceable(280) %4) #21
  call void @llvm.lifetime.end.p0(i64 280, ptr nonnull %4) #21
  resume { ptr, i32 } %eh.lpad-body

14:                                               ; preds = %11, %2
  ret ptr %0
}